target datalayout = "e-m:e-p270:32:32-p271:32:32-p272:64:64-i64:64-i128:128-f80:128-n8:16:32:64-S128"
target triple = "x86_64-pc-linux-gnu"

%struct.TupleDescData = type { i32, i32, i32, i32, ptr, [0 x %struct.CompactAttribute] }
%struct.CompactAttribute = type { i32, i16, i8, i8, i8, i8, i8, i8, i8 }
%struct.ExpandedRecordHeader = type { %struct.ExpandedObjectHeader, i32, i32, i32, i32, i32, ptr, i64, ptr, ptr, i32, i64, i64, i32, i8, ptr, ptr, ptr, ptr, ptr, ptr, %struct.MemoryContextCallback }
%struct.ExpandedObjectHeader = type { i32, ptr, ptr, [10 x i8], [10 x i8] }
%struct.MemoryContextCallback = type { ptr, ptr, ptr }

; Function Attrs: nounwind uwtable
define dso_local ptr @expanded_record_fetch_tupdesc(ptr noundef %0) #0 {
  %2 = alloca ptr, align 8
  %3 = alloca ptr, align 8
  %4 = alloca ptr, align 8
  %5 = alloca i32, align 4
  store ptr %0, ptr %3, align 8
  call void @llvm.lifetime.start.p0(i64 8, ptr %4) #9
  %6 = load ptr, ptr %3, align 8
  %7 = getelementptr inbounds nuw %struct.ExpandedRecordHeader, ptr %6, i32 0, i32 6
  %8 = load ptr, ptr %7, align 8
  %9 = icmp ne ptr %8, null
  br i1 %9, label %10, label %14

10:                                               ; preds = %1
  %11 = load ptr, ptr %3, align 8
  %12 = getelementptr inbounds nuw %struct.ExpandedRecordHeader, ptr %11, i32 0, i32 6
  %13 = load ptr, ptr %12, align 8
  store ptr %13, ptr %2, align 8
  store i32 1, ptr %5, align 4
  br label %79

14:                                               ; preds = %1
  %15 = load ptr, ptr %3, align 8
  %16 = getelementptr inbounds nuw %struct.ExpandedRecordHeader, ptr %15, i32 0, i32 4
  %17 = load i32, ptr %16, align 4
  %18 = load ptr, ptr %3, align 8
  %19 = getelementptr inbounds nuw %struct.ExpandedRecordHeader, ptr %18, i32 0, i32 5
  %20 = load i32, ptr %19, align 8
  %21 = call ptr @lookup_rowtype_tupdesc(i32 noundef %17, i32 noundef %20)
  store ptr %21, ptr %4, align 8
  %22 = load ptr, ptr %4, align 8
  %23 = getelementptr inbounds nuw %struct.TupleDescData, ptr %22, i32 0, i32 3
  %24 = load i32, ptr %23, align 4
  %25 = icmp sge i32 %24, 0
  br i1 %25, label %26, label %64

26:                                               ; preds = %14
  %27 = load ptr, ptr %3, align 8
  %28 = getelementptr inbounds nuw %struct.ExpandedRecordHeader, ptr %27, i32 0, i32 21
  %29 = getelementptr inbounds nuw %struct.MemoryContextCallback, ptr %28, i32 0, i32 1
  %30 = load ptr, ptr %29, align 8
  %31 = icmp eq ptr %30, null
  br i1 %31, label %32, label %46

32:                                               ; preds = %26
  %33 = load ptr, ptr %3, align 8
  %34 = getelementptr inbounds nuw %struct.ExpandedRecordHeader, ptr %33, i32 0, i32 21
  %35 = getelementptr inbounds nuw %struct.MemoryContextCallback, ptr %34, i32 0, i32 0
  store ptr @ER_mc_callback, ptr %35, align 8
  %36 = load ptr, ptr %3, align 8
  %37 = load ptr, ptr %3, align 8
  %38 = getelementptr inbounds nuw %struct.ExpandedRecordHeader, ptr %37, i32 0, i32 21
  %39 = getelementptr inbounds nuw %struct.MemoryContextCallback, ptr %38, i32 0, i32 1
  store ptr %36, ptr %39, align 8
  %40 = load ptr, ptr %3, align 8
  %41 = getelementptr inbounds nuw %struct.ExpandedRecordHeader, ptr %40, i32 0, i32 0
  %42 = getelementptr inbounds nuw %struct.ExpandedObjectHeader, ptr %41, i32 0, i32 2
  %43 = load ptr, ptr %42, align 8
  %44 = load ptr, ptr %3, align 8
  %45 = getelementptr inbounds nuw %struct.ExpandedRecordHeader, ptr %44, i32 0, i32 21
  call void @MemoryContextRegisterResetCallback(ptr noundef %43, ptr noundef %45)
  br label %46

46:                                               ; preds = %32, %26
  %47 = load ptr, ptr %4, align 8
  %48 = load ptr, ptr %3, align 8
  %49 = getelementptr inbounds nuw %struct.ExpandedRecordHeader, ptr %48, i32 0, i32 6
  store ptr %47, ptr %49, align 8
  %50 = load ptr, ptr %4, align 8
  %51 = getelementptr inbounds nuw %struct.TupleDescData, ptr %50, i32 0, i32 3
  %52 = load i32, ptr %51, align 4
  %53 = add i32 %52, 1
  store i32 %53, ptr %51, align 4
  br label %54

54:                                               ; preds = %46
  %55 = load ptr, ptr %4, align 8
  %56 = getelementptr inbounds nuw %struct.TupleDescData, ptr %55, i32 0, i32 3
  %57 = load i32, ptr %56, align 4
  %58 = icmp sge i32 %57, 0
  br i1 %58, label %59, label %61

59:                                               ; preds = %54
  %60 = load ptr, ptr %4, align 8
  call void @DecrTupleDescRefCount(ptr noundef %60)
  br label %61

61:                                               ; preds = %59, %54
  br label %62

62:                                               ; preds = %61
  br label %63

63:                                               ; preds = %62
  br label %68

64:                                               ; preds = %14
  %65 = load ptr, ptr %4, align 8
  %66 = load ptr, ptr %3, align 8
  %67 = getelementptr inbounds nuw %struct.ExpandedRecordHeader, ptr %66, i32 0, i32 6
  store ptr %65, ptr %67, align 8
  br label %68

68:                                               ; preds = %64, %63
  %69 = load ptr, ptr %4, align 8
  %70 = getelementptr inbounds nuw %struct.TupleDescData, ptr %69, i32 0, i32 1
  %71 = load i32, ptr %70, align 4
  %72 = load ptr, ptr %4, align 8
  %73 = getelementptr inbounds nuw %struct.TupleDescData, ptr %72, i32 0, i32 2
  %74 = load i32, ptr %73, align 8
  %75 = call i64 @assign_record_type_identifier(i32 noundef %71, i32 noundef %74)
  %76 = load ptr, ptr %3, align 8
  %77 = getelementptr inbounds nuw %struct.ExpandedRecordHeader, ptr %76, i32 0, i32 7
  store i64 %75, ptr %77, align 8
  %78 = load ptr, ptr %4, align 8
  store ptr %78, ptr %2, align 8
  store i32 1, ptr %5, align 4
  br label %79

79:                                               ; preds = %68, %10
  call void @llvm.lifetime.end.p0(i64 8, ptr %4) #9
  %80 = load ptr, ptr %2, align 8
  ret ptr %80
}