; Function Attrs: nounwind uwtable
define dso_local ptr @expanded_record_fetch_tupdesc(ptr noundef %0) local_unnamed_addr #0 {
  %2 = getelementptr inbounds nuw i8, ptr %0, i64 72
  %3 = load ptr, ptr %2, align 8
  %.not = icmp eq ptr %3, null
  br i1 %.not, label %4, label %34

4:                                                ; preds = %1
  %5 = getelementptr inbounds nuw i8, ptr %0, i64 60
  %6 = load i32, ptr %5, align 4
  %7 = getelementptr inbounds nuw i8, ptr %0, i64 64
  %8 = load i32, ptr %7, align 8
  %9 = tail call ptr @lookup_rowtype_tupdesc(i32 noundef %6, i32 noundef %8) #8
  %10 = getelementptr inbounds nuw i8, ptr %9, i64 12
  %11 = load i32, ptr %10, align 4
  %12 = icmp sgt i32 %11, -1
  br i1 %12, label %13, label %26

13:                                               ; preds = %4
  %14 = getelementptr inbounds nuw i8, ptr %0, i64 192
  %15 = load ptr, ptr %14, align 8
  %16 = icmp eq ptr %15, null
  br i1 %16, label %17, label %21

17:                                               ; preds = %13
  %18 = getelementptr inbounds nuw i8, ptr %0, i64 184
  store ptr @ER_mc_callback, ptr %18, align 8
  store ptr %0, ptr %14, align 8
  %19 = getelementptr inbounds nuw i8, ptr %0, i64 16
  %20 = load ptr, ptr %19, align 8
  tail call void @MemoryContextRegisterResetCallback(ptr noundef %20, ptr noundef nonnull %18) #8
  br label %21

21:                                               ; preds = %17, %13
  store ptr %9, ptr %2, align 8
  %22 = load i32, ptr %10, align 4
  %23 = add i32 %22, 1
  store i32 %23, ptr %10, align 4
  %24 = icmp sgt i32 %23, -1
  br i1 %24, label %25, label %27

25:                                               ; preds = %21
  tail call void @DecrTupleDescRefCount(ptr noundef nonnull %9) #8
  br label %27

26:                                               ; preds = %4
  store ptr %9, ptr %2, align 8
  br label %27

27:                                               ; preds = %21, %25, %26
  %28 = getelementptr inbounds nuw i8, ptr %9, i64 4
  %29 = load i32, ptr %28, align 4
  %30 = getelementptr inbounds nuw i8, ptr %9, i64 8
  %31 = load i32, ptr %30, align 8
  %32 = tail call i64 @assign_record_type_identifier(i32 noundef %29, i32 noundef %31) #8
  %33 = getelementptr inbounds nuw i8, ptr %0, i64 80
  store i64 %32, ptr %33, align 8
  br label %34

34:                                               ; preds = %1, %27
  %.0 = phi ptr [ %9, %27 ], [ %3, %1 ]
  ret ptr %.0
}